; Function Attrs: mustprogress nounwind uwtable
define dso_local noundef ptr @LLVMBuildSExt(ptr noundef %0, ptr noundef %1, ptr noundef %2, ptr noundef %3) local_unnamed_addr #0 {
  %5 = alloca %"class.llvm::Twine", align 8
  %6 = getelementptr inbounds nuw i8, ptr %5, i64 33
  store i8 1, ptr %6, align 1
  %7 = load i8, ptr %3, align 1
  %.not.i = icmp eq i8 %7, 0
  br i1 %.not.i, label %_ZN4llvm5TwineC2EPKc.exit, label %8

8:                                                ; preds = %4
  store ptr %3, ptr %5, align 8
  br label %_ZN4llvm5TwineC2EPKc.exit

_ZN4llvm5TwineC2EPKc.exit:                        ; preds = %4, %8
  %storemerge.i = phi i8 [ 3, %8 ], [ 1, %4 ]
  %9 = getelementptr inbounds nuw i8, ptr %5, i64 32
  store i8 %storemerge.i, ptr %9, align 8
  %10 = call noundef ptr @_ZN4llvm13IRBuilderBase10CreateCastENS_11Instruction7CastOpsEPNS_5ValueEPNS_4TypeERKNS_5TwineE(ptr noundef nonnull align 8 dereferenceable(128) %0, i32 noundef 40, ptr noundef %1, ptr noundef %2, ptr noundef nonnull align 8 dereferenceable(34) %5)
  ret ptr %10
}